; Function Attrs: mustprogress uwtable
define void @_ZN8facebook5velox7process10StackTraceC2Ei(ptr noundef nonnull align 8 dereferenceable(96) %this, i32 noundef %skipFrames) unnamed_addr #0 align 2 personality ptr @__gxx_personality_v0 {
entry:
  %mutex_.i = getelementptr inbounds i8, ptr %this, i64 28
  tail call void @llvm.memset.p0.i64(ptr noundef nonnull align 8 dereferenceable(25) %this, i8 0, i64 25, i1 false)
  tail call void @_ZN5folly15SharedMutexImplILb0EvSt6atomicNS_24SharedMutexPolicyDefaultEEC1Ev(ptr noundef nonnull align 4 dereferenceable(4) %mutex_.i) #21
  %bt_vector_ = getelementptr inbounds i8, ptr %this, i64 32
  %mutex_.i1 = getelementptr inbounds i8, ptr %this, i64 60
  tail call void @llvm.memset.p0.i64(ptr noundef nonnull align 8 dereferenceable(25) %bt_vector_, i8 0, i64 25, i1 false)
  tail call void @_ZN5folly15SharedMutexImplILb0EvSt6atomicNS_24SharedMutexPolicyDefaultEEC1Ev(ptr noundef nonnull align 4 dereferenceable(4) %mutex_.i1) #21
  %bt_ = getelementptr inbounds i8, ptr %this, i64 64
  tail call void @_ZNSt7__cxx1112basic_stringIcSt11char_traitsIcESaIcEEC1Ev(ptr noundef nonnull align 8 dereferenceable(32) %bt_) #21
  invoke void @_ZN8facebook5velox7process10StackTrace6createEi(ptr noundef nonnull align 8 dereferenceable(96) %this, i32 noundef %skipFrames)
          to label %invoke.cont unwind label %lpad

invoke.cont:                                      ; preds = %entry
  ret void

lpad:                                             ; preds = %entry
  %0 = landingpad { ptr, i32 }
          cleanup
  tail call void @_ZNSt7__cxx1112basic_stringIcSt11char_traitsIcESaIcEED1Ev(ptr noundef nonnull align 8 dereferenceable(32) %bt_) #21
  tail call void @_ZN5folly15SharedMutexImplILb0EvSt6atomicNS_24SharedMutexPolicyDefaultEED1Ev(ptr noundef nonnull align 4 dereferenceable(4) %mutex_.i1) #21
  tail call void @_ZNSt6vectorINSt7__cxx1112basic_stringIcSt11char_traitsIcESaIcEEESaIS5_EED2Ev(ptr noundef nonnull align 8 dereferenceable(24) %bt_vector_) #21
  tail call void @_ZN5folly15SharedMutexImplILb0EvSt6atomicNS_24SharedMutexPolicyDefaultEED1Ev(ptr noundef nonnull align 4 dereferenceable(4) %mutex_.i) #21
  %1 = load ptr, ptr %this, align 8
  %tobool.not.i.i.i = icmp eq ptr %1, null
  br i1 %tobool.not.i.i.i, label %_ZNSt6vectorIPvSaIS0_EED2Ev.exit, label %if.then.i.i.i

if.then.i.i.i:                                    ; preds = %lpad
  tail call void @_ZdlPv(ptr noundef nonnull %1) #22
  br label %_ZNSt6vectorIPvSaIS0_EED2Ev.exit

_ZNSt6vectorIPvSaIS0_EED2Ev.exit:                 ; preds = %lpad, %if.then.i.i.i
  resume { ptr, i32 } %0
}